
scratch.elf:     file format elf32-littlearm


Disassembly of section .init:

000102b0 <_init>:
   102b0:	e92d4008 	push	{r3, lr}
   102b4:	eb00001f 	bl	10338 <call_weak_fn>
   102b8:	e8bd8008 	pop	{r3, pc}

Disassembly of section .plt:

000102bc <.plt>:
   102bc:	e52de004 	push	{lr}		; (str lr, [sp, #-4]!)
   102c0:	e59fe004 	ldr	lr, [pc, #4]	; 102cc <.plt+0x10>
   102c4:	e08fe00e 	add	lr, pc, lr
   102c8:	e5bef008 	ldr	pc, [lr, #8]!
   102cc:	00010d34 	andeq	r0, r1, r4, lsr sp

000102d0 <__libc_start_main@plt>:
   102d0:	e28fc600 	add	ip, pc, #0, 12
   102d4:	e28cca10 	add	ip, ip, #16, 20	; 0x10000
   102d8:	e5bcfd34 	ldr	pc, [ip, #3380]!	; 0xd34

000102dc <__gmon_start__@plt>:
   102dc:	e28fc600 	add	ip, pc, #0, 12
   102e0:	e28cca10 	add	ip, ip, #16, 20	; 0x10000
   102e4:	e5bcfd2c 	ldr	pc, [ip, #3372]!	; 0xd2c

000102e8 <abort@plt>:
   102e8:	e28fc600 	add	ip, pc, #0, 12
   102ec:	e28cca10 	add	ip, ip, #16, 20	; 0x10000
   102f0:	e5bcfd24 	ldr	pc, [ip, #3364]!	; 0xd24

Disassembly of section .text:

000102f4 <_start>:
   102f4:	e3a0b000 	mov	fp, #0
   102f8:	e3a0e000 	mov	lr, #0
   102fc:	e49d1004 	pop	{r1}		; (ldr r1, [sp], #4)
   10300:	e1a0200d 	mov	r2, sp
   10304:	e52d2004 	push	{r2}		; (str r2, [sp, #-4]!)
   10308:	e52d0004 	push	{r0}		; (str r0, [sp, #-4]!)
   1030c:	e59fa01c 	ldr	sl, [pc, #28]	; 10330 <_start+0x3c>
   10310:	e28f3018 	add	r3, pc, #24
   10314:	e08aa003 	add	sl, sl, r3
   10318:	e3a03000 	mov	r3, #0
   1031c:	e52d3004 	push	{r3}		; (str r3, [sp, #-4]!)
   10320:	e59f000c 	ldr	r0, [pc, #12]	; 10334 <_start+0x40>
   10324:	e79a0000 	ldr	r0, [sl, r0]
   10328:	ebffffe8 	bl	102d0 <__libc_start_main@plt>
   1032c:	ebffffed 	bl	102e8 <abort@plt>
   10330:	00010cd0 	ldrdeq	r0, [r1], -r0	; <UNPREDICTABLE>
   10334:	0000001c 	andeq	r0, r0, ip, lsl r0

00010338 <call_weak_fn>:
   10338:	e59f3014 	ldr	r3, [pc, #20]	; 10354 <call_weak_fn+0x1c>
   1033c:	e59f2014 	ldr	r2, [pc, #20]	; 10358 <call_weak_fn+0x20>
   10340:	e08f3003 	add	r3, pc, r3
   10344:	e7932002 	ldr	r2, [r3, r2]
   10348:	e3520000 	cmp	r2, #0
   1034c:	012fff1e 	bxeq	lr
   10350:	eaffffe1 	b	102dc <__gmon_start__@plt>
   10354:	00010cb8 			; <UNDEFINED> instruction: 0x00010cb8
   10358:	00000018 	andeq	r0, r0, r8, lsl r0

0001035c <deregister_tm_clones>:
   1035c:	e59f0018 	ldr	r0, [pc, #24]	; 1037c <deregister_tm_clones+0x20>
   10360:	e59f3018 	ldr	r3, [pc, #24]	; 10380 <deregister_tm_clones+0x24>
   10364:	e1530000 	cmp	r3, r0
   10368:	012fff1e 	bxeq	lr
   1036c:	e59f3010 	ldr	r3, [pc, #16]	; 10384 <deregister_tm_clones+0x28>
   10370:	e3530000 	cmp	r3, #0
   10374:	012fff1e 	bxeq	lr
   10378:	e12fff13 	bx	r3
   1037c:	00021028 	andeq	r1, r2, r8, lsr #32
   10380:	00021028 	andeq	r1, r2, r8, lsr #32
   10384:	00000000 	andeq	r0, r0, r0

00010388 <register_tm_clones>:
   10388:	e59f0024 	ldr	r0, [pc, #36]	; 103b4 <register_tm_clones+0x2c>
   1038c:	e59f3024 	ldr	r3, [pc, #36]	; 103b8 <register_tm_clones+0x30>
   10390:	e0433000 	sub	r3, r3, r0
   10394:	e1a01fa3 	lsr	r1, r3, #31
   10398:	e0811143 	add	r1, r1, r3, asr #2
   1039c:	e1b010c1 	asrs	r1, r1, #1
   103a0:	012fff1e 	bxeq	lr
   103a4:	e59f3010 	ldr	r3, [pc, #16]	; 103bc <register_tm_clones+0x34>
   103a8:	e3530000 	cmp	r3, #0
   103ac:	012fff1e 	bxeq	lr
   103b0:	e12fff13 	bx	r3
   103b4:	00021028 	andeq	r1, r2, r8, lsr #32
   103b8:	00021028 	andeq	r1, r2, r8, lsr #32
   103bc:	00000000 	andeq	r0, r0, r0

000103c0 <__do_global_dtors_aux>:
   103c0:	e92d4010 	push	{r4, lr}
   103c4:	e59f4018 	ldr	r4, [pc, #24]	; 103e4 <__do_global_dtors_aux+0x24>
   103c8:	e5d43000 	ldrb	r3, [r4]
   103cc:	e3530000 	cmp	r3, #0
   103d0:	18bd8010 	popne	{r4, pc}
   103d4:	ebffffe0 	bl	1035c <deregister_tm_clones>
   103d8:	e3a03001 	mov	r3, #1
   103dc:	e5c43000 	strb	r3, [r4]
   103e0:	e8bd8010 	pop	{r4, pc}
   103e4:	00021028 	andeq	r1, r2, r8, lsr #32

000103e8 <frame_dummy>:
   103e8:	eaffffe6 	b	10388 <register_tm_clones>

000103ec <main>:
   103ec:	e52db004 	push	{fp}		; (str fp, [sp, #-4]!)
   103f0:	e28db000 	add	fp, sp, #0
   103f4:	e24dd00c 	sub	sp, sp, #12
   103f8:	e50b0008 	str	r0, [fp, #-8]
   103fc:	e50b100c 	str	r1, [fp, #-12]
   10400:	e59f300c 	ldr	r3, [pc, #12]	; 10414 <main+0x28>
   10404:	e1a00003 	mov	r0, r3
   10408:	e28bd000 	add	sp, fp, #0
   1040c:	e49db004 	pop	{fp}		; (ldr fp, [sp], #4)
   10410:	e12fff1e 	bx	lr
   10414:	55667788 	strbpl	r7, [r6, #-1928]!	; 0xfffff878

Disassembly of section .fini:

00010418 <_fini>:
   10418:	e92d4008 	push	{r3, lr}
   1041c:	e8bd8008 	pop	{r3, pc}
